target datalayout = "e-m:e-p270:32:32-p271:32:32-p272:64:64-i64:64-i128:128-f80:128-n8:16:32:64-S128"
target triple = "x86_64-pc-linux-gnu"

%struct.lv_ll_t = type { i32, ptr, ptr }
%struct._lv_spangroup_t = type { %struct._lv_obj_t, i32, i32, i32, i32, %struct.lv_ll_t, i8 }
%struct._lv_obj_t = type { ptr, ptr, ptr, ptr, ptr, %struct.lv_area_t, i32, i16, i16 }
%struct.lv_area_t = type { i32, i32, i32, i32 }

; Function Attrs: nounwind uwtable
define internal void @lv_spangroup_constructor(ptr noundef %0, ptr noundef %1) #0 {
  %3 = alloca ptr, align 8
  %4 = alloca ptr, align 8
  %5 = alloca ptr, align 8
  store ptr %0, ptr %3, align 8, !tbaa !3
  store ptr %1, ptr %4, align 8, !tbaa !3
  call void @llvm.lifetime.start.p0(i64 8, ptr %5) #6
  %6 = load ptr, ptr %4, align 8, !tbaa !3
  store ptr %6, ptr %5, align 8, !tbaa !3
  %7 = load ptr, ptr %5, align 8, !tbaa !3
  %8 = getelementptr inbounds nuw %struct._lv_spangroup_t, ptr %7, i32 0, i32 5
  call void @lv_ll_init(ptr noundef %8, i32 noundef 48)
  %9 = load ptr, ptr %5, align 8, !tbaa !3
  %10 = getelementptr inbounds nuw %struct._lv_spangroup_t, ptr %9, i32 0, i32 2
  store i32 0, ptr %10, align 4, !tbaa !7
  %11 = load ptr, ptr %5, align 8, !tbaa !3
  %12 = getelementptr inbounds nuw %struct._lv_spangroup_t, ptr %11, i32 0, i32 1
  store i32 -1, ptr %12, align 8, !tbaa !14
  %13 = load ptr, ptr %5, align 8, !tbaa !3
  %14 = getelementptr inbounds nuw %struct._lv_spangroup_t, ptr %13, i32 0, i32 6
  %15 = load i8, ptr %14, align 8
  %16 = and i8 %15, -4
  %17 = or i8 %16, 1
  store i8 %17, ptr %14, align 8
  %18 = load ptr, ptr %5, align 8, !tbaa !3
  %19 = getelementptr inbounds nuw %struct._lv_spangroup_t, ptr %18, i32 0, i32 6
  %20 = load i8, ptr %19, align 8
  %21 = and i8 %20, -5
  %22 = or i8 %21, 0
  store i8 %22, ptr %19, align 8
  %23 = load ptr, ptr %5, align 8, !tbaa !3
  %24 = getelementptr inbounds nuw %struct._lv_spangroup_t, ptr %23, i32 0, i32 3
  store i32 0, ptr %24, align 8, !tbaa !15
  %25 = load ptr, ptr %5, align 8, !tbaa !3
  %26 = getelementptr inbounds nuw %struct._lv_spangroup_t, ptr %25, i32 0, i32 4
  store i32 0, ptr %26, align 4, !tbaa !16
  %27 = load ptr, ptr %5, align 8, !tbaa !3
  %28 = getelementptr inbounds nuw %struct._lv_spangroup_t, ptr %27, i32 0, i32 6
  %29 = load i8, ptr %28, align 8
  %30 = and i8 %29, -9
  %31 = or i8 %30, 8
  store i8 %31, ptr %28, align 8
  call void @llvm.lifetime.end.p0(i64 8, ptr %5) #6
  ret void
}