; Function Attrs: nounwind uwtable
define internal void @lv_spangroup_constructor(ptr nocapture readnone %0, ptr noundef %1) #0 {
  %3 = getelementptr inbounds nuw i8, ptr %1, i64 80
  tail call void @lv_ll_init(ptr noundef nonnull %3, i32 noundef 48) #8
  %4 = getelementptr inbounds nuw i8, ptr %1, i64 68
  store i32 0, ptr %4, align 4, !tbaa !3
  %5 = getelementptr inbounds nuw i8, ptr %1, i64 64
  store i32 -1, ptr %5, align 8, !tbaa !13
  %6 = getelementptr inbounds nuw i8, ptr %1, i64 104
  %7 = load i8, ptr %6, align 8
  %8 = and i8 %7, -16
  %9 = getelementptr inbounds nuw i8, ptr %1, i64 72
  store i32 0, ptr %9, align 8, !tbaa !14
  %10 = getelementptr inbounds nuw i8, ptr %1, i64 76
  store i32 0, ptr %10, align 4, !tbaa !15
  %11 = or disjoint i8 %8, 9
  store i8 %11, ptr %6, align 8
  ret void
}